target datalayout = "e-m:e-p270:32:32-p271:32:32-p272:64:64-i64:64-i128:128-f80:128-n8:16:32:64-S128"
target triple = "x86_64-pc-linux-gnu"

; Function Attrs: alwaysinline nounwind willreturn memory(none) uwtable
define internal zeroext i8 @av_clip_uint8_c(i32 noundef %0) #3 {
  %2 = alloca i8, align 1
  %3 = alloca i32, align 4
  store i32 %0, ptr %3, align 4, !tbaa !13
  %4 = load i32, ptr %3, align 4, !tbaa !13
  %5 = and i32 %4, -256
  %6 = icmp ne i32 %5, 0
  br i1 %6, label %7, label %12

7:                                                ; preds = %1
  %8 = load i32, ptr %3, align 4, !tbaa !13
  %9 = xor i32 %8, -1
  %10 = ashr i32 %9, 31
  %11 = trunc i32 %10 to i8
  store i8 %11, ptr %2, align 1
  br label %15

12:                                               ; preds = %1
  %13 = load i32, ptr %3, align 4, !tbaa !13
  %14 = trunc i32 %13 to i8
  store i8 %14, ptr %2, align 1
  br label %15

15:                                               ; preds = %12, %7
  %16 = load i8, ptr %2, align 1
  ret i8 %16
}

; Function Attrs: inlinehint nounwind uwtable
define internal void @idct4col_add(ptr noundef %0, i64 noundef %1, ptr noundef %2) #2 {
  %4 = alloca ptr, align 8
  %5 = alloca i64, align 8
  %6 = alloca ptr, align 8
  %7 = alloca i32, align 4
  %8 = alloca i32, align 4
  %9 = alloca i32, align 4
  %10 = alloca i32, align 4
  %11 = alloca i32, align 4
  %12 = alloca i32, align 4
  %13 = alloca i32, align 4
  %14 = alloca i32, align 4
  store ptr %0, ptr %4, align 8, !tbaa !4
  store i64 %1, ptr %5, align 8, !tbaa !9
  store ptr %2, ptr %6, align 8, !tbaa !11
  call void @llvm.lifetime.start.p0(i64 4, ptr %7) #4
  call void @llvm.lifetime.start.p0(i64 4, ptr %8) #4
  call void @llvm.lifetime.start.p0(i64 4, ptr %9) #4
  call void @llvm.lifetime.start.p0(i64 4, ptr %10) #4
  call void @llvm.lifetime.start.p0(i64 4, ptr %11) #4
  call void @llvm.lifetime.start.p0(i64 4, ptr %12) #4
  call void @llvm.lifetime.start.p0(i64 4, ptr %13) #4
  call void @llvm.lifetime.start.p0(i64 4, ptr %14) #4
  %15 = load ptr, ptr %6, align 8, !tbaa !11
  %16 = getelementptr inbounds i16, ptr %15, i64 0
  %17 = load i16, ptr %16, align 2, !tbaa !19
  %18 = sext i16 %17 to i32
  store i32 %18, ptr %11, align 4, !tbaa !13
  %19 = load ptr, ptr %6, align 8, !tbaa !11
  %20 = getelementptr inbounds i16, ptr %19, i64 8
  %21 = load i16, ptr %20, align 2, !tbaa !19
  %22 = sext i16 %21 to i32
  store i32 %22, ptr %12, align 4, !tbaa !13
  %23 = load ptr, ptr %6, align 8, !tbaa !11
  %24 = getelementptr inbounds i16, ptr %23, i64 16
  %25 = load i16, ptr %24, align 2, !tbaa !19
  %26 = sext i16 %25 to i32
  store i32 %26, ptr %13, align 4, !tbaa !13
  %27 = load ptr, ptr %6, align 8, !tbaa !11
  %28 = getelementptr inbounds i16, ptr %27, i64 24
  %29 = load i16, ptr %28, align 2, !tbaa !19
  %30 = sext i16 %29 to i32
  store i32 %30, ptr %14, align 4, !tbaa !13
  %31 = load i32, ptr %11, align 4, !tbaa !13
  %32 = load i32, ptr %13, align 4, !tbaa !13
  %33 = add nsw i32 %31, %32
  %34 = mul nsw i32 %33, 2896
  %35 = add nsw i32 %34, 65536
  store i32 %35, ptr %7, align 4, !tbaa !13
  %36 = load i32, ptr %11, align 4, !tbaa !13
  %37 = load i32, ptr %13, align 4, !tbaa !13
  %38 = sub nsw i32 %36, %37
  %39 = mul nsw i32 %38, 2896
  %40 = add nsw i32 %39, 65536
  store i32 %40, ptr %9, align 4, !tbaa !13
  %41 = load i32, ptr %12, align 4, !tbaa !13
  %42 = mul nsw i32 %41, 3784
  %43 = load i32, ptr %14, align 4, !tbaa !13
  %44 = mul nsw i32 %43, 1567
  %45 = add nsw i32 %42, %44
  store i32 %45, ptr %8, align 4, !tbaa !13
  %46 = load i32, ptr %12, align 4, !tbaa !13
  %47 = mul nsw i32 %46, 1567
  %48 = load i32, ptr %14, align 4, !tbaa !13
  %49 = mul nsw i32 %48, 3784
  %50 = sub nsw i32 %47, %49
  store i32 %50, ptr %10, align 4, !tbaa !13
  %51 = load ptr, ptr %4, align 8, !tbaa !4
  %52 = getelementptr inbounds i8, ptr %51, i64 0
  %53 = load i8, ptr %52, align 1, !tbaa !18
  %54 = zext i8 %53 to i32
  %55 = load i32, ptr %7, align 4, !tbaa !13
  %56 = load i32, ptr %8, align 4, !tbaa !13
  %57 = add nsw i32 %55, %56
  %58 = ashr i32 %57, 17
  %59 = add nsw i32 %54, %58
  %60 = call zeroext i8 @av_clip_uint8_c(i32 noundef %59) #5
  %61 = load ptr, ptr %4, align 8, !tbaa !4
  %62 = getelementptr inbounds i8, ptr %61, i64 0
  store i8 %60, ptr %62, align 1, !tbaa !18
  %63 = load i64, ptr %5, align 8, !tbaa !9
  %64 = load ptr, ptr %4, align 8, !tbaa !4
  %65 = getelementptr inbounds i8, ptr %64, i64 %63
  store ptr %65, ptr %4, align 8, !tbaa !4
  %66 = load ptr, ptr %4, align 8, !tbaa !4
  %67 = getelementptr inbounds i8, ptr %66, i64 0
  %68 = load i8, ptr %67, align 1, !tbaa !18
  %69 = zext i8 %68 to i32
  %70 = load i32, ptr %9, align 4, !tbaa !13
  %71 = load i32, ptr %10, align 4, !tbaa !13
  %72 = add nsw i32 %70, %71
  %73 = ashr i32 %72, 17
  %74 = add nsw i32 %69, %73
  %75 = call zeroext i8 @av_clip_uint8_c(i32 noundef %74) #5
  %76 = load ptr, ptr %4, align 8, !tbaa !4
  %77 = getelementptr inbounds i8, ptr %76, i64 0
  store i8 %75, ptr %77, align 1, !tbaa !18
  %78 = load i64, ptr %5, align 8, !tbaa !9
  %79 = load ptr, ptr %4, align 8, !tbaa !4
  %80 = getelementptr inbounds i8, ptr %79, i64 %78
  store ptr %80, ptr %4, align 8, !tbaa !4
  %81 = load ptr, ptr %4, align 8, !tbaa !4
  %82 = getelementptr inbounds i8, ptr %81, i64 0
  %83 = load i8, ptr %82, align 1, !tbaa !18
  %84 = zext i8 %83 to i32
  %85 = load i32, ptr %9, align 4, !tbaa !13
  %86 = load i32, ptr %10, align 4, !tbaa !13
  %87 = sub nsw i32 %85, %86
  %88 = ashr i32 %87, 17
  %89 = add nsw i32 %84, %88
  %90 = call zeroext i8 @av_clip_uint8_c(i32 noundef %89) #5
  %91 = load ptr, ptr %4, align 8, !tbaa !4
  %92 = getelementptr inbounds i8, ptr %91, i64 0
  store i8 %90, ptr %92, align 1, !tbaa !18
  %93 = load i64, ptr %5, align 8, !tbaa !9
  %94 = load ptr, ptr %4, align 8, !tbaa !4
  %95 = getelementptr inbounds i8, ptr %94, i64 %93
  store ptr %95, ptr %4, align 8, !tbaa !4
  %96 = load ptr, ptr %4, align 8, !tbaa !4
  %97 = getelementptr inbounds i8, ptr %96, i64 0
  %98 = load i8, ptr %97, align 1, !tbaa !18
  %99 = zext i8 %98 to i32
  %100 = load i32, ptr %7, align 4, !tbaa !13
  %101 = load i32, ptr %8, align 4, !tbaa !13
  %102 = sub nsw i32 %100, %101
  %103 = ashr i32 %102, 17
  %104 = add nsw i32 %99, %103
  %105 = call zeroext i8 @av_clip_uint8_c(i32 noundef %104) #5
  %106 = load ptr, ptr %4, align 8, !tbaa !4
  %107 = getelementptr inbounds i8, ptr %106, i64 0
  store i8 %105, ptr %107, align 1, !tbaa !18
  call void @llvm.lifetime.end.p0(i64 4, ptr %14) #4
  call void @llvm.lifetime.end.p0(i64 4, ptr %13) #4
  call void @llvm.lifetime.end.p0(i64 4, ptr %12) #4
  call void @llvm.lifetime.end.p0(i64 4, ptr %11) #4
  call void @llvm.lifetime.end.p0(i64 4, ptr %10) #4
  call void @llvm.lifetime.end.p0(i64 4, ptr %9) #4
  call void @llvm.lifetime.end.p0(i64 4, ptr %8) #4
  call void @llvm.lifetime.end.p0(i64 4, ptr %7) #4
  ret void
}

; Function Attrs: inlinehint nounwind uwtable
define internal void @idct4row(ptr noundef %0) #2 {
  %2 = alloca ptr, align 8
  %3 = alloca i32, align 4
  %4 = alloca i32, align 4
  %5 = alloca i32, align 4
  %6 = alloca i32, align 4
  %7 = alloca i32, align 4
  %8 = alloca i32, align 4
  %9 = alloca i32, align 4
  %10 = alloca i32, align 4
  store ptr %0, ptr %2, align 8, !tbaa !11
  call void @llvm.lifetime.start.p0(i64 4, ptr %3) #4
  call void @llvm.lifetime.start.p0(i64 4, ptr %4) #4
  call void @llvm.lifetime.start.p0(i64 4, ptr %5) #4
  call void @llvm.lifetime.start.p0(i64 4, ptr %6) #4
  call void @llvm.lifetime.start.p0(i64 4, ptr %7) #4
  call void @llvm.lifetime.start.p0(i64 4, ptr %8) #4
  call void @llvm.lifetime.start.p0(i64 4, ptr %9) #4
  call void @llvm.lifetime.start.p0(i64 4, ptr %10) #4
  %11 = load ptr, ptr %2, align 8, !tbaa !11
  %12 = getelementptr inbounds i16, ptr %11, i64 0
  %13 = load i16, ptr %12, align 2, !tbaa !19
  %14 = sext i16 %13 to i32
  store i32 %14, ptr %7, align 4, !tbaa !13
  %15 = load ptr, ptr %2, align 8, !tbaa !11
  %16 = getelementptr inbounds i16, ptr %15, i64 1
  %17 = load i16, ptr %16, align 2, !tbaa !19
  %18 = sext i16 %17 to i32
  store i32 %18, ptr %8, align 4, !tbaa !13
  %19 = load ptr, ptr %2, align 8, !tbaa !11
  %20 = getelementptr inbounds i16, ptr %19, i64 2
  %21 = load i16, ptr %20, align 2, !tbaa !19
  %22 = sext i16 %21 to i32
  store i32 %22, ptr %9, align 4, !tbaa !13
  %23 = load ptr, ptr %2, align 8, !tbaa !11
  %24 = getelementptr inbounds i16, ptr %23, i64 3
  %25 = load i16, ptr %24, align 2, !tbaa !19
  %26 = sext i16 %25 to i32
  store i32 %26, ptr %10, align 4, !tbaa !13
  %27 = load i32, ptr %7, align 4, !tbaa !13
  %28 = load i32, ptr %9, align 4, !tbaa !13
  %29 = add nsw i32 %27, %28
  %30 = mul nsw i32 %29, 23170
  %31 = add nsw i32 %30, 1024
  store i32 %31, ptr %3, align 4, !tbaa !13
  %32 = load i32, ptr %7, align 4, !tbaa !13
  %33 = load i32, ptr %9, align 4, !tbaa !13
  %34 = sub nsw i32 %32, %33
  %35 = mul nsw i32 %34, 23170
  %36 = add nsw i32 %35, 1024
  store i32 %36, ptr %5, align 4, !tbaa !13
  %37 = load i32, ptr %8, align 4, !tbaa !13
  %38 = mul nsw i32 %37, 30274
  %39 = load i32, ptr %10, align 4, !tbaa !13
  %40 = mul nsw i32 %39, 12540
  %41 = add nsw i32 %38, %40
  store i32 %41, ptr %4, align 4, !tbaa !13
  %42 = load i32, ptr %8, align 4, !tbaa !13
  %43 = mul nsw i32 %42, 12540
  %44 = load i32, ptr %10, align 4, !tbaa !13
  %45 = mul nsw i32 %44, 30274
  %46 = sub nsw i32 %43, %45
  store i32 %46, ptr %6, align 4, !tbaa !13
  %47 = load i32, ptr %3, align 4, !tbaa !13
  %48 = load i32, ptr %4, align 4, !tbaa !13
  %49 = add i32 %47, %48
  %50 = lshr i32 %49, 11
  %51 = trunc i32 %50 to i16
  %52 = load ptr, ptr %2, align 8, !tbaa !11
  %53 = getelementptr inbounds i16, ptr %52, i64 0
  store i16 %51, ptr %53, align 2, !tbaa !19
  %54 = load i32, ptr %5, align 4, !tbaa !13
  %55 = load i32, ptr %6, align 4, !tbaa !13
  %56 = add i32 %54, %55
  %57 = lshr i32 %56, 11
  %58 = trunc i32 %57 to i16
  %59 = load ptr, ptr %2, align 8, !tbaa !11
  %60 = getelementptr inbounds i16, ptr %59, i64 1
  store i16 %58, ptr %60, align 2, !tbaa !19
  %61 = load i32, ptr %5, align 4, !tbaa !13
  %62 = load i32, ptr %6, align 4, !tbaa !13
  %63 = sub i32 %61, %62
  %64 = lshr i32 %63, 11
  %65 = trunc i32 %64 to i16
  %66 = load ptr, ptr %2, align 8, !tbaa !11
  %67 = getelementptr inbounds i16, ptr %66, i64 2
  store i16 %65, ptr %67, align 2, !tbaa !19
  %68 = load i32, ptr %3, align 4, !tbaa !13
  %69 = load i32, ptr %4, align 4, !tbaa !13
  %70 = sub i32 %68, %69
  %71 = lshr i32 %70, 11
  %72 = trunc i32 %71 to i16
  %73 = load ptr, ptr %2, align 8, !tbaa !11
  %74 = getelementptr inbounds i16, ptr %73, i64 3
  store i16 %72, ptr %74, align 2, !tbaa !19
  call void @llvm.lifetime.end.p0(i64 4, ptr %10) #4
  call void @llvm.lifetime.end.p0(i64 4, ptr %9) #4
  call void @llvm.lifetime.end.p0(i64 4, ptr %8) #4
  call void @llvm.lifetime.end.p0(i64 4, ptr %7) #4
  call void @llvm.lifetime.end.p0(i64 4, ptr %6) #4
  call void @llvm.lifetime.end.p0(i64 4, ptr %5) #4
  call void @llvm.lifetime.end.p0(i64 4, ptr %4) #4
  call void @llvm.lifetime.end.p0(i64 4, ptr %3) #4
  ret void
}

; Function Attrs: nounwind uwtable
define void @ff_simple_idct44_add(ptr noundef %0, i64 noundef %1, ptr noundef %2) #0 {
  %4 = alloca ptr, align 8
  %5 = alloca i64, align 8
  %6 = alloca ptr, align 8
  %7 = alloca i32, align 4
  store ptr %0, ptr %4, align 8, !tbaa !4
  store i64 %1, ptr %5, align 8, !tbaa !9
  store ptr %2, ptr %6, align 8, !tbaa !11
  call void @llvm.lifetime.start.p0(i64 4, ptr %7) #4
  store i32 0, ptr %7, align 4, !tbaa !13
  br label %8

8:                                                ; preds = %17, %3
  %9 = load i32, ptr %7, align 4, !tbaa !13
  %10 = icmp slt i32 %9, 4
  br i1 %10, label %11, label %20

11:                                               ; preds = %8
  %12 = load ptr, ptr %6, align 8, !tbaa !11
  %13 = load i32, ptr %7, align 4, !tbaa !13
  %14 = mul nsw i32 %13, 8
  %15 = sext i32 %14 to i64
  %16 = getelementptr inbounds i16, ptr %12, i64 %15
  call void @idct4row(ptr noundef %16)
  br label %17

17:                                               ; preds = %11
  %18 = load i32, ptr %7, align 4, !tbaa !13
  %19 = add nsw i32 %18, 1
  store i32 %19, ptr %7, align 4, !tbaa !13
  br label %8, !llvm.loop !48

20:                                               ; preds = %8
  store i32 0, ptr %7, align 4, !tbaa !13
  br label %21

21:                                               ; preds = %34, %20
  %22 = load i32, ptr %7, align 4, !tbaa !13
  %23 = icmp slt i32 %22, 4
  br i1 %23, label %24, label %37

24:                                               ; preds = %21
  %25 = load ptr, ptr %4, align 8, !tbaa !4
  %26 = load i32, ptr %7, align 4, !tbaa !13
  %27 = sext i32 %26 to i64
  %28 = getelementptr inbounds i8, ptr %25, i64 %27
  %29 = load i64, ptr %5, align 8, !tbaa !9
  %30 = load ptr, ptr %6, align 8, !tbaa !11
  %31 = load i32, ptr %7, align 4, !tbaa !13
  %32 = sext i32 %31 to i64
  %33 = getelementptr inbounds i16, ptr %30, i64 %32
  call void @idct4col_add(ptr noundef %28, i64 noundef %29, ptr noundef %33)
  br label %34

34:                                               ; preds = %24
  %35 = load i32, ptr %7, align 4, !tbaa !13
  %36 = add nsw i32 %35, 1
  store i32 %36, ptr %7, align 4, !tbaa !13
  br label %21, !llvm.loop !49

37:                                               ; preds = %21
  call void @llvm.lifetime.end.p0(i64 4, ptr %7) #4
  ret void
}