; Function Attrs: nofree norecurse nosync nounwind memory(argmem: readwrite) uwtable
define void @ff_simple_idct44_add(ptr noundef captures(none) %0, i64 noundef %1, ptr noundef captures(none) %2) local_unnamed_addr #4 {
  br label %4

4:                                                ; preds = %3, %4
  %indvars.iv = phi i64 [ 0, %3 ], [ %indvars.iv.next, %4 ]
  %.idx = shl nuw nsw i64 %indvars.iv, 4
  %5 = getelementptr inbounds nuw i8, ptr %2, i64 %.idx
  %6 = load i16, ptr %5, align 2, !tbaa !6
  %7 = sext i16 %6 to i32
  %8 = getelementptr inbounds nuw i8, ptr %5, i64 2
  %9 = load i16, ptr %8, align 2, !tbaa !6
  %10 = sext i16 %9 to i32
  %11 = getelementptr inbounds nuw i8, ptr %5, i64 4
  %12 = load i16, ptr %11, align 2, !tbaa !6
  %13 = sext i16 %12 to i32
  %14 = getelementptr inbounds nuw i8, ptr %5, i64 6
  %15 = load i16, ptr %14, align 2, !tbaa !6
  %16 = sext i16 %15 to i32
  %17 = add nsw i32 %13, %7
  %18 = mul nsw i32 %17, 23170
  %19 = add nsw i32 %18, 1024
  %20 = sub nsw i32 %7, %13
  %21 = mul nsw i32 %20, 23170
  %22 = add nsw i32 %21, 1024
  %23 = mul nsw i32 %10, 30274
  %24 = mul nsw i32 %16, 12540
  %25 = add nsw i32 %24, %23
  %26 = mul nsw i32 %10, 12540
  %.neg.i = mul nsw i32 %16, -30274
  %27 = add nsw i32 %.neg.i, %26
  %28 = add i32 %19, %25
  %29 = lshr i32 %28, 11
  %30 = trunc i32 %29 to i16
  store i16 %30, ptr %5, align 2, !tbaa !6
  %31 = add i32 %22, %27
  %32 = lshr i32 %31, 11
  %33 = trunc i32 %32 to i16
  store i16 %33, ptr %8, align 2, !tbaa !6
  %34 = sub i32 %22, %27
  %35 = lshr i32 %34, 11
  %36 = trunc i32 %35 to i16
  store i16 %36, ptr %11, align 2, !tbaa !6
  %37 = sub i32 %19, %25
  %38 = lshr i32 %37, 11
  %39 = trunc i32 %38 to i16
  store i16 %39, ptr %14, align 2, !tbaa !6
  %indvars.iv.next = add nuw nsw i64 %indvars.iv, 1
  %exitcond.not = icmp eq i64 %indvars.iv.next, 4
  br i1 %exitcond.not, label %.preheader, label %4, !llvm.loop !39

.preheader:                                       ; preds = %4, %.preheader
  %indvars.iv14 = phi i64 [ %indvars.iv.next15, %.preheader ], [ 0, %4 ]
  %40 = getelementptr inbounds nuw i8, ptr %0, i64 %indvars.iv14
  %41 = getelementptr inbounds nuw i16, ptr %2, i64 %indvars.iv14
  %42 = load i16, ptr %41, align 2, !tbaa !6
  %43 = sext i16 %42 to i32
  %44 = getelementptr inbounds nuw i8, ptr %41, i64 16
  %45 = load i16, ptr %44, align 2, !tbaa !6
  %46 = sext i16 %45 to i32
  %47 = getelementptr inbounds nuw i8, ptr %41, i64 32
  %48 = load i16, ptr %47, align 2, !tbaa !6
  %49 = sext i16 %48 to i32
  %50 = getelementptr inbounds nuw i8, ptr %41, i64 48
  %51 = load i16, ptr %50, align 2, !tbaa !6
  %52 = sext i16 %51 to i32
  %53 = add nsw i32 %49, %43
  %54 = mul nsw i32 %53, 2896
  %55 = add nsw i32 %54, 65536
  %56 = sub nsw i32 %43, %49
  %57 = mul nsw i32 %56, 2896
  %58 = add nsw i32 %57, 65536
  %59 = mul nsw i32 %46, 3784
  %60 = mul nsw i32 %52, 1567
  %61 = add nsw i32 %60, %59
  %62 = mul nsw i32 %46, 1567
  %.neg.i10 = mul nsw i32 %52, -3784
  %63 = add nsw i32 %.neg.i10, %62
  %64 = load i8, ptr %40, align 1, !tbaa !10
  %65 = zext i8 %64 to i32
  %66 = add nsw i32 %55, %61
  %67 = ashr i32 %66, 17
  %68 = add nsw i32 %67, %65
  %.not.i.i = icmp ult i32 %68, 256
  %isnotneg.i.i = icmp sgt i32 %68, -1
  %69 = sext i1 %isnotneg.i.i to i8
  %70 = trunc nuw i32 %68 to i8
  %.0.i.i = select i1 %.not.i.i, i8 %70, i8 %69
  store i8 %.0.i.i, ptr %40, align 1, !tbaa !10
  %71 = getelementptr inbounds i8, ptr %40, i64 %1
  %72 = load i8, ptr %71, align 1, !tbaa !10
  %73 = zext i8 %72 to i32
  %74 = add nsw i32 %58, %63
  %75 = ashr i32 %74, 17
  %76 = add nsw i32 %75, %73
  %.not.i33.i = icmp ult i32 %76, 256
  %isnotneg.i34.i = icmp sgt i32 %76, -1
  %77 = sext i1 %isnotneg.i34.i to i8
  %78 = trunc nuw i32 %76 to i8
  %.0.i35.i = select i1 %.not.i33.i, i8 %78, i8 %77
  store i8 %.0.i35.i, ptr %71, align 1, !tbaa !10
  %79 = getelementptr inbounds i8, ptr %71, i64 %1
  %80 = load i8, ptr %79, align 1, !tbaa !10
  %81 = zext i8 %80 to i32
  %82 = sub nsw i32 %58, %63
  %83 = ashr i32 %82, 17
  %84 = add nsw i32 %83, %81
  %.not.i36.i = icmp ult i32 %84, 256
  %isnotneg.i37.i = icmp sgt i32 %84, -1
  %85 = sext i1 %isnotneg.i37.i to i8
  %86 = trunc nuw i32 %84 to i8
  %.0.i38.i = select i1 %.not.i36.i, i8 %86, i8 %85
  store i8 %.0.i38.i, ptr %79, align 1, !tbaa !10
  %87 = getelementptr inbounds i8, ptr %79, i64 %1
  %88 = load i8, ptr %87, align 1, !tbaa !10
  %89 = zext i8 %88 to i32
  %90 = sub nsw i32 %55, %61
  %91 = ashr i32 %90, 17
  %92 = add nsw i32 %91, %89
  %.not.i39.i = icmp ult i32 %92, 256
  %isnotneg.i40.i = icmp sgt i32 %92, -1
  %93 = sext i1 %isnotneg.i40.i to i8
  %94 = trunc nuw i32 %92 to i8
  %.0.i41.i = select i1 %.not.i39.i, i8 %94, i8 %93
  store i8 %.0.i41.i, ptr %87, align 1, !tbaa !10
  %indvars.iv.next15 = add nuw nsw i64 %indvars.iv14, 1
  %exitcond17.not = icmp eq i64 %indvars.iv.next15, 4
  br i1 %exitcond17.not, label %95, label %.preheader, !llvm.loop !40

95:                                               ; preds = %.preheader
  ret void
}